(icorpus
Corpus
p0
(dp1
S'_logger'
p2
NsS'_dir'
p3
S'art-data/'
p4
sS'_freq'
p5
ccollections
OrderedDict
p6
((lp7
(lp8
S'FIFA_1'
p9
aI30343
aa(lp10
S'FIFA_2'
p11
aI30255
aa(lp12
S'FIFA_3'
p13
aI29755
aa(lp14
S'Iran_1'
p15
aI32477
aa(lp16
S'Iran_2'
p17
aI30501
aa(lp18
S'Iran_3'
p19
aI37813
aa(lp20
S'Switzerland_1'
p21
aI42632
aa(lp22
S'Switzerland_2'
p23
aI41849
aa(lp24
S'Switzerland_3'
p25
aI43819
aa(lp26
S'Syria_1'
p27
aI13827
aa(lp28
S'Syria_2'
p29
aI11552
aa(lp30
S'Syria_3'
p31
aI18600
aa(lp32
S'UK_1'
p33
aI12568
aa(lp34
S'UK_2'
p35
aI24700
aa(lp36
S'UK_3'
p37
aI18799
aa(lp38
S'USA_1'
p39
aI31278
aa(lp40
S'USA_2'
p41
aI43438
aa(lp42
S'USA_3'
p43
aI37365
aa(lp44
S'aggressive'
p45
aI57304
aa(lp46
S'agreement'
p47
aI12446
aa(lp48
S'alliance'
p49
aI37602
aa(lp50
S'art'
p51
aI56587
aa(lp52
S'cheese'
p53
aI90513
aa(lp54
S'chocolate'
p55
aI90673
aa(lp56
S'culture'
p57
aI56617
aa(lp58
S'dangerous'
p59
aI13611
aa(lp60
S'deal'
p61
aI37647
aa(lp62
S'development'
p63
aI56289
aa(lp64
S'diplomatic'
p65
aI25197
aa(lp66
S'friendly'
p67
aI37838
aa(lp68
S'history'
p69
aI56657
aa(lp70
S'imposing'
p71
aI13626
aa(lp72
S'irresponsible'
p73
aI13512
aa(lp74
S'militant'
p75
aI13467
aa(lp76
S'military'
p77
aI57300
aa(lp78
S'mountains'
p79
aI90513
aa(lp80
S'music'
p81
aI56512
aa(lp82
S'negotiations'
p83
aI37877
aa(lp84
S'neutral'
p85
aI25222
aa(lp86
S'nuclear'
p87
aI100648
aa(lp88
S'partners'
p89
aI37838
aa(lp90
S'peace'
p91
aI37576
aa(lp92
S'praise'
p93
aI12517
aa(lp94
S'responsible'
p95
aI37605
aa(lp96
S'science'
p97
aI56274
aa(lp98
S'seeking'
p99
aI25265
aa(lp100
S'threat'
p101
aI13597
aa(lp102
S'worrying'
p103
aI13560
aatp104
Rp105
sS'_source_files'
p106
(lp107
(lp108
S'mixture1.txt'
p109
aS'1'
p110
aa(lp111
S'mixture2.txt'
p112
aS'2'
p113
aa(lp114
S'mixture3.txt'
p115
aS'3'
p116
aasS'_entities'
p117
(lp118
S'FIFA'
p119
aS'USA'
p120
aS'Iran'
p121
aS'UK'
p122
aS'Switzerland'
p123
aS'Syria'
p124
asb.